target datalayout = "e-m:e-p270:32:32-p271:32:32-p272:64:64-i64:64-i128:128-f80:128-n8:16:32:64-S128"
target triple = "x86_64-pc-linux-gnu"

%"class.std::vector.72" = type { %"struct.std::_Vector_base.73" }
%"struct.std::_Vector_base.73" = type { %"struct.std::_Vector_base<casadi::IndexRecution::VariableStruct *, std::allocator<casadi::IndexRecution::VariableStruct *>>::_Vector_impl" }
%"struct.std::_Vector_base<casadi::IndexRecution::VariableStruct *, std::allocator<casadi::IndexRecution::VariableStruct *>>::_Vector_impl" = type { %"struct.std::_Vector_base<casadi::IndexRecution::VariableStruct *, std::allocator<casadi::IndexRecution::VariableStruct *>>::_Vector_impl_data" }
%"struct.std::_Vector_base<casadi::IndexRecution::VariableStruct *, std::allocator<casadi::IndexRecution::VariableStruct *>>::_Vector_impl_data" = type { ptr, ptr, ptr }
%"class.std::vector.77" = type { %"struct.std::_Vector_base.78" }
%"struct.std::_Vector_base.78" = type { %"struct.std::_Vector_base<casadi::IndexRecution::EquationStruct *, std::allocator<casadi::IndexRecution::EquationStruct *>>::_Vector_impl" }
%"struct.std::_Vector_base<casadi::IndexRecution::EquationStruct *, std::allocator<casadi::IndexRecution::EquationStruct *>>::_Vector_impl" = type { %"struct.std::_Vector_base<casadi::IndexRecution::EquationStruct *, std::allocator<casadi::IndexRecution::EquationStruct *>>::_Vector_impl_data" }
%"struct.std::_Vector_base<casadi::IndexRecution::EquationStruct *, std::allocator<casadi::IndexRecution::EquationStruct *>>::_Vector_impl_data" = type { ptr, ptr, ptr }
%"struct.casadi::IndexRecution::VariableStruct" = type <{ %"class.std::vector.77", %"class.std::vector.77", ptr, ptr, ptr, i64, i8, i8, [6 x i8] }>
%"class.__gnu_cxx::__normal_iterator.82" = type { ptr }
%"struct.casadi::IndexRecution::EquationStruct" = type <{ %"class.std::vector.72", %"class.std::vector.72", ptr, ptr, ptr, i64, i8, [7 x i8] }>

; Function Attrs: mustprogress nounwind uwtable
define linkonce_odr hidden noundef nonnull align 8 dereferenceable(8) ptr @_ZNK9__gnu_cxx17__normal_iteratorIPPN6casadi13IndexRecution14VariableStructESt6vectorIS4_SaIS4_EEE4baseEv(ptr noundef nonnull align 8 dereferenceable(8) %0) #5 comdat align 2 {
  %2 = alloca ptr, align 8
  store ptr %0, ptr %2, align 8
  %3 = load ptr, ptr %2, align 8
  %4 = getelementptr inbounds %"class.__gnu_cxx::__normal_iterator.82", ptr %3, i32 0, i32 0
  ret ptr %4
}

; Function Attrs: mustprogress nounwind uwtable
define linkonce_odr hidden void @_ZN9__gnu_cxx17__normal_iteratorIPPN6casadi13IndexRecution14VariableStructESt6vectorIS4_SaIS4_EEEC2ERKS5_(ptr noundef nonnull align 8 dereferenceable(8) %0, ptr noundef nonnull align 8 dereferenceable(8) %1) unnamed_addr #5 comdat align 2 {
  %3 = alloca ptr, align 8
  %4 = alloca ptr, align 8
  store ptr %0, ptr %3, align 8
  store ptr %1, ptr %4, align 8
  %5 = load ptr, ptr %3, align 8
  %6 = getelementptr inbounds %"class.__gnu_cxx::__normal_iterator.82", ptr %5, i32 0, i32 0
  %7 = load ptr, ptr %4, align 8
  %8 = load ptr, ptr %7, align 8
  store ptr %8, ptr %6, align 8
  ret void
}

; Function Attrs: mustprogress nounwind uwtable
define linkonce_odr hidden noundef nonnull align 8 dereferenceable(8) ptr @_ZN9__gnu_cxx17__normal_iteratorIPPN6casadi13IndexRecution14VariableStructESt6vectorIS4_SaIS4_EEEppEv(ptr noundef nonnull align 8 dereferenceable(8) %0) #5 comdat align 2 {
  %2 = alloca ptr, align 8
  store ptr %0, ptr %2, align 8
  %3 = load ptr, ptr %2, align 8
  %4 = getelementptr inbounds %"class.__gnu_cxx::__normal_iterator.82", ptr %3, i32 0, i32 0
  %5 = load ptr, ptr %4, align 8
  %6 = getelementptr inbounds ptr, ptr %5, i32 1
  store ptr %6, ptr %4, align 8
  ret ptr %3
}

; Function Attrs: mustprogress nounwind uwtable
define linkonce_odr hidden noundef nonnull align 8 dereferenceable(8) ptr @_ZNK9__gnu_cxx17__normal_iteratorIPPN6casadi13IndexRecution14VariableStructESt6vectorIS4_SaIS4_EEEdeEv(ptr noundef nonnull align 8 dereferenceable(8) %0) #5 comdat align 2 {
  %2 = alloca ptr, align 8
  store ptr %0, ptr %2, align 8
  %3 = load ptr, ptr %2, align 8
  %4 = getelementptr inbounds %"class.__gnu_cxx::__normal_iterator.82", ptr %3, i32 0, i32 0
  %5 = load ptr, ptr %4, align 8
  ret ptr %5
}

; Function Attrs: mustprogress nounwind uwtable
define linkonce_odr hidden noundef zeroext i1 @_ZN9__gnu_cxxneIPPN6casadi13IndexRecution14VariableStructESt6vectorIS4_SaIS4_EEEEbRKNS_17__normal_iteratorIT_T0_EESE_(ptr noundef nonnull align 8 dereferenceable(8) %0, ptr noundef nonnull align 8 dereferenceable(8) %1) #5 comdat {
  %3 = alloca ptr, align 8
  %4 = alloca ptr, align 8
  store ptr %0, ptr %3, align 8
  store ptr %1, ptr %4, align 8
  %5 = load ptr, ptr %3, align 8
  %6 = call noundef nonnull align 8 dereferenceable(8) ptr @_ZNK9__gnu_cxx17__normal_iteratorIPPN6casadi13IndexRecution14VariableStructESt6vectorIS4_SaIS4_EEE4baseEv(ptr noundef nonnull align 8 dereferenceable(8) %5) #3
  %7 = load ptr, ptr %6, align 8
  %8 = load ptr, ptr %4, align 8
  %9 = call noundef nonnull align 8 dereferenceable(8) ptr @_ZNK9__gnu_cxx17__normal_iteratorIPPN6casadi13IndexRecution14VariableStructESt6vectorIS4_SaIS4_EEE4baseEv(ptr noundef nonnull align 8 dereferenceable(8) %8) #3
  %10 = load ptr, ptr %9, align 8
  %11 = icmp ne ptr %7, %10
  ret i1 %11
}

; Function Attrs: mustprogress nounwind uwtable
define linkonce_odr hidden ptr @_ZNSt6vectorIPN6casadi13IndexRecution14VariableStructESaIS3_EE3endEv(ptr noundef nonnull align 8 dereferenceable(24) %0) #5 comdat align 2 {
  %2 = alloca %"class.__gnu_cxx::__normal_iterator.82", align 8
  %3 = alloca ptr, align 8
  store ptr %0, ptr %3, align 8
  %4 = load ptr, ptr %3, align 8
  %5 = getelementptr inbounds %"struct.std::_Vector_base.73", ptr %4, i32 0, i32 0
  %6 = getelementptr inbounds %"struct.std::_Vector_base<casadi::IndexRecution::VariableStruct *, std::allocator<casadi::IndexRecution::VariableStruct *>>::_Vector_impl_data", ptr %5, i32 0, i32 1
  call void @_ZN9__gnu_cxx17__normal_iteratorIPPN6casadi13IndexRecution14VariableStructESt6vectorIS4_SaIS4_EEEC2ERKS5_(ptr noundef nonnull align 8 dereferenceable(8) %2, ptr noundef nonnull align 8 dereferenceable(8) %6) #3
  %7 = getelementptr inbounds %"class.__gnu_cxx::__normal_iterator.82", ptr %2, i32 0, i32 0
  %8 = load ptr, ptr %7, align 8
  ret ptr %8
}

; Function Attrs: mustprogress nounwind uwtable
define linkonce_odr hidden ptr @_ZNSt6vectorIPN6casadi13IndexRecution14VariableStructESaIS3_EE5beginEv(ptr noundef nonnull align 8 dereferenceable(24) %0) #5 comdat align 2 {
  %2 = alloca %"class.__gnu_cxx::__normal_iterator.82", align 8
  %3 = alloca ptr, align 8
  store ptr %0, ptr %3, align 8
  %4 = load ptr, ptr %3, align 8
  %5 = getelementptr inbounds %"struct.std::_Vector_base.73", ptr %4, i32 0, i32 0
  %6 = getelementptr inbounds %"struct.std::_Vector_base<casadi::IndexRecution::VariableStruct *, std::allocator<casadi::IndexRecution::VariableStruct *>>::_Vector_impl_data", ptr %5, i32 0, i32 0
  call void @_ZN9__gnu_cxx17__normal_iteratorIPPN6casadi13IndexRecution14VariableStructESt6vectorIS4_SaIS4_EEEC2ERKS5_(ptr noundef nonnull align 8 dereferenceable(8) %2, ptr noundef nonnull align 8 dereferenceable(8) %6) #3
  %7 = getelementptr inbounds %"class.__gnu_cxx::__normal_iterator.82", ptr %2, i32 0, i32 0
  %8 = load ptr, ptr %7, align 8
  ret ptr %8
}

; Function Attrs: mustprogress uwtable
define hidden noundef zeroext i1 @_ZN6casadi13IndexRecution20dfs_match_pantelidesEPNS0_14EquationStructE(ptr noundef %0) #4 {
  %2 = alloca i1, align 1
  %3 = alloca ptr, align 8
  %4 = alloca ptr, align 8
  %5 = alloca %"class.__gnu_cxx::__normal_iterator.82", align 8
  %6 = alloca %"class.__gnu_cxx::__normal_iterator.82", align 8
  %7 = alloca ptr, align 8
  %8 = alloca ptr, align 8
  %9 = alloca %"class.__gnu_cxx::__normal_iterator.82", align 8
  %10 = alloca %"class.__gnu_cxx::__normal_iterator.82", align 8
  %11 = alloca ptr, align 8
  %12 = alloca ptr, align 8
  store ptr %0, ptr %3, align 8
  %13 = load ptr, ptr %3, align 8
  %14 = getelementptr inbounds %"struct.casadi::IndexRecution::EquationStruct", ptr %13, i32 0, i32 6
  store i8 1, ptr %14, align 8
  %15 = load ptr, ptr %3, align 8
  %16 = getelementptr inbounds %"struct.casadi::IndexRecution::EquationStruct", ptr %15, i32 0, i32 0
  store ptr %16, ptr %4, align 8
  %17 = load ptr, ptr %4, align 8
  %18 = call ptr @_ZNSt6vectorIPN6casadi13IndexRecution14VariableStructESaIS3_EE5beginEv(ptr noundef nonnull align 8 dereferenceable(24) %17) #3
  %19 = getelementptr inbounds %"class.__gnu_cxx::__normal_iterator.82", ptr %5, i32 0, i32 0
  store ptr %18, ptr %19, align 8
  %20 = load ptr, ptr %4, align 8
  %21 = call ptr @_ZNSt6vectorIPN6casadi13IndexRecution14VariableStructESaIS3_EE3endEv(ptr noundef nonnull align 8 dereferenceable(24) %20) #3
  %22 = getelementptr inbounds %"class.__gnu_cxx::__normal_iterator.82", ptr %6, i32 0, i32 0
  store ptr %21, ptr %22, align 8
  br label %23

23:                                               ; preds = %40, %1
  %24 = call noundef zeroext i1 @_ZN9__gnu_cxxneIPPN6casadi13IndexRecution14VariableStructESt6vectorIS4_SaIS4_EEEEbRKNS_17__normal_iteratorIT_T0_EESE_(ptr noundef nonnull align 8 dereferenceable(8) %5, ptr noundef nonnull align 8 dereferenceable(8) %6) #3
  br i1 %24, label %25, label %42

25:                                               ; preds = %23
  %26 = call noundef nonnull align 8 dereferenceable(8) ptr @_ZNK9__gnu_cxx17__normal_iteratorIPPN6casadi13IndexRecution14VariableStructESt6vectorIS4_SaIS4_EEEdeEv(ptr noundef nonnull align 8 dereferenceable(8) %5) #3
  %27 = load ptr, ptr %26, align 8
  store ptr %27, ptr %7, align 8
  %28 = load ptr, ptr %7, align 8
  %29 = getelementptr inbounds %"struct.casadi::IndexRecution::VariableStruct", ptr %28, i32 0, i32 2
  %30 = load ptr, ptr %29, align 8
  %31 = icmp eq ptr %30, null
  br i1 %31, label %32, label %39

32:                                               ; preds = %25
  %33 = load ptr, ptr %3, align 8
  %34 = load ptr, ptr %7, align 8
  %35 = getelementptr inbounds %"struct.casadi::IndexRecution::VariableStruct", ptr %34, i32 0, i32 2
  store ptr %33, ptr %35, align 8
  %36 = load ptr, ptr %7, align 8
  %37 = load ptr, ptr %3, align 8
  %38 = getelementptr inbounds %"struct.casadi::IndexRecution::EquationStruct", ptr %37, i32 0, i32 2
  store ptr %36, ptr %38, align 8
  store i1 true, ptr %2, align 1
  br label %80

39:                                               ; preds = %25
  br label %40

40:                                               ; preds = %39
  %41 = call noundef nonnull align 8 dereferenceable(8) ptr @_ZN9__gnu_cxx17__normal_iteratorIPPN6casadi13IndexRecution14VariableStructESt6vectorIS4_SaIS4_EEEppEv(ptr noundef nonnull align 8 dereferenceable(8) %5) #3
  br label %23

42:                                               ; preds = %23
  %43 = load ptr, ptr %3, align 8
  %44 = getelementptr inbounds %"struct.casadi::IndexRecution::EquationStruct", ptr %43, i32 0, i32 0
  store ptr %44, ptr %8, align 8
  %45 = load ptr, ptr %8, align 8
  %46 = call ptr @_ZNSt6vectorIPN6casadi13IndexRecution14VariableStructESaIS3_EE5beginEv(ptr noundef nonnull align 8 dereferenceable(24) %45) #3
  %47 = getelementptr inbounds %"class.__gnu_cxx::__normal_iterator.82", ptr %9, i32 0, i32 0
  store ptr %46, ptr %47, align 8
  %48 = load ptr, ptr %8, align 8
  %49 = call ptr @_ZNSt6vectorIPN6casadi13IndexRecution14VariableStructESaIS3_EE3endEv(ptr noundef nonnull align 8 dereferenceable(24) %48) #3
  %50 = getelementptr inbounds %"class.__gnu_cxx::__normal_iterator.82", ptr %10, i32 0, i32 0
  store ptr %49, ptr %50, align 8
  br label %51

51:                                               ; preds = %77, %42
  %52 = call noundef zeroext i1 @_ZN9__gnu_cxxneIPPN6casadi13IndexRecution14VariableStructESt6vectorIS4_SaIS4_EEEEbRKNS_17__normal_iteratorIT_T0_EESE_(ptr noundef nonnull align 8 dereferenceable(8) %9, ptr noundef nonnull align 8 dereferenceable(8) %10) #3
  br i1 %52, label %53, label %79

53:                                               ; preds = %51
  %54 = call noundef nonnull align 8 dereferenceable(8) ptr @_ZNK9__gnu_cxx17__normal_iteratorIPPN6casadi13IndexRecution14VariableStructESt6vectorIS4_SaIS4_EEEdeEv(ptr noundef nonnull align 8 dereferenceable(8) %9) #3
  %55 = load ptr, ptr %54, align 8
  store ptr %55, ptr %11, align 8
  %56 = load ptr, ptr %11, align 8
  %57 = getelementptr inbounds %"struct.casadi::IndexRecution::VariableStruct", ptr %56, i32 0, i32 6
  %58 = load i8, ptr %57, align 8
  %59 = trunc i8 %58 to i1
  br i1 %59, label %76, label %60

60:                                               ; preds = %53
  %61 = load ptr, ptr %11, align 8
  %62 = getelementptr inbounds %"struct.casadi::IndexRecution::VariableStruct", ptr %61, i32 0, i32 6
  store i8 1, ptr %62, align 8
  %63 = load ptr, ptr %11, align 8
  %64 = getelementptr inbounds %"struct.casadi::IndexRecution::VariableStruct", ptr %63, i32 0, i32 2
  %65 = load ptr, ptr %64, align 8
  store ptr %65, ptr %12, align 8
  %66 = load ptr, ptr %12, align 8
  %67 = call noundef zeroext i1 @_ZN6casadi13IndexRecution20dfs_match_pantelidesEPNS0_14EquationStructE(ptr noundef %66)
  br i1 %67, label %68, label %75

68:                                               ; preds = %60
  %69 = load ptr, ptr %3, align 8
  %70 = load ptr, ptr %11, align 8
  %71 = getelementptr inbounds %"struct.casadi::IndexRecution::VariableStruct", ptr %70, i32 0, i32 2
  store ptr %69, ptr %71, align 8
  %72 = load ptr, ptr %11, align 8
  %73 = load ptr, ptr %3, align 8
  %74 = getelementptr inbounds %"struct.casadi::IndexRecution::EquationStruct", ptr %73, i32 0, i32 2
  store ptr %72, ptr %74, align 8
  store i1 true, ptr %2, align 1
  br label %80

75:                                               ; preds = %60
  br label %76

76:                                               ; preds = %75, %53
  br label %77

77:                                               ; preds = %76
  %78 = call noundef nonnull align 8 dereferenceable(8) ptr @_ZN9__gnu_cxx17__normal_iteratorIPPN6casadi13IndexRecution14VariableStructESt6vectorIS4_SaIS4_EEEppEv(ptr noundef nonnull align 8 dereferenceable(8) %9) #3
  br label %51

79:                                               ; preds = %51
  store i1 false, ptr %2, align 1
  br label %80

80:                                               ; preds = %79, %68, %32
  %81 = load i1, ptr %2, align 1
  ret i1 %81
}