; Function Attrs: mustprogress nofree nosync nounwind memory(readwrite, inaccessiblemem: none) uwtable
define hidden noundef zeroext i1 @_ZN6casadi13IndexRecution20dfs_match_pantelidesEPNS0_14EquationStructE(ptr noundef %0) local_unnamed_addr #7 {
  %2 = getelementptr inbounds i8, ptr %0, i64 80
  store i8 1, ptr %2, align 8
  %3 = load ptr, ptr %0, align 8
  %4 = getelementptr inbounds i8, ptr %0, i64 8
  %5 = load ptr, ptr %4, align 8
  %.not2834 = icmp eq ptr %3, %5
  br i1 %.not2834, label %.loopexit, label %.lr.ph

6:                                                ; preds = %.lr.ph
  %7 = getelementptr inbounds i8, ptr %.sroa.025.035, i64 8
  %.not28 = icmp eq ptr %7, %5
  br i1 %.not28, label %.preheader, label %.lr.ph

.preheader:                                       ; preds = %6
  br i1 %.not2834, label %.loopexit, label %.lr.ph39

.lr.ph:                                           ; preds = %1, %6
  %.sroa.025.035 = phi ptr [ %7, %6 ], [ %3, %1 ]
  %8 = load ptr, ptr %.sroa.025.035, align 8
  %9 = getelementptr inbounds i8, ptr %8, i64 48
  %10 = load ptr, ptr %9, align 8
  %11 = icmp eq ptr %10, null
  br i1 %11, label %.loopexit.sink.split, label %6

.lr.ph39:                                         ; preds = %.preheader, %20
  %.sroa.021.038 = phi ptr [ %21, %20 ], [ %3, %.preheader ]
  %12 = load ptr, ptr %.sroa.021.038, align 8
  %13 = getelementptr inbounds i8, ptr %12, i64 80
  %14 = load i8, ptr %13, align 8
  %15 = and i8 %14, 1
  %.not = icmp eq i8 %15, 0
  br i1 %.not, label %16, label %20

16:                                               ; preds = %.lr.ph39
  store i8 1, ptr %13, align 8
  %17 = getelementptr inbounds i8, ptr %12, i64 48
  %18 = load ptr, ptr %17, align 8
  %19 = tail call noundef zeroext i1 @_ZN6casadi13IndexRecution20dfs_match_pantelidesEPNS0_14EquationStructE(ptr noundef %18)
  br i1 %19, label %.loopexit.sink.split, label %20

20:                                               ; preds = %.lr.ph39, %16
  %21 = getelementptr inbounds i8, ptr %.sroa.021.038, i64 8
  %.not29 = icmp eq ptr %21, %5
  br i1 %.not29, label %.loopexit, label %.lr.ph39

.loopexit.sink.split:                             ; preds = %.lr.ph, %16
  %.lcssa50.sink51 = phi ptr [ %12, %16 ], [ %8, %.lr.ph ]
  %22 = getelementptr inbounds i8, ptr %.lcssa50.sink51, i64 48
  store ptr %0, ptr %22, align 8
  %23 = getelementptr inbounds i8, ptr %0, i64 48
  store ptr %.lcssa50.sink51, ptr %23, align 8
  br label %.loopexit

.loopexit:                                        ; preds = %20, %.loopexit.sink.split, %1, %.preheader
  %.0 = phi i1 [ false, %.preheader ], [ false, %1 ], [ true, %.loopexit.sink.split ], [ false, %20 ]
  ret i1 %.0
}